; Function Attrs: mustprogress nofree norecurse nosync nounwind willreturn memory(read, argmem: readwrite, inaccessiblemem: none) uwtable
define hidden ptr @lxb_tag_name_by_id_noi(ptr nocapture noundef readnone %0, i64 noundef %1, ptr noundef writeonly %2) local_unnamed_addr #3 {
  %4 = icmp ugt i64 %1, 195
  %5 = getelementptr inbounds [196 x %struct.lxb_tag_data_t], ptr @lxb_tag_res_data_default, i64 0, i64 %1
  %6 = icmp eq i64 %1, 196
  %7 = inttoptr i64 %1 to ptr
  %spec.select.i.i = select i1 %6, ptr null, ptr %7
  %.0.i.i = select i1 %4, ptr %spec.select.i.i, ptr %5
  %8 = icmp eq ptr %.0.i.i, null
  %.not11.i = icmp eq ptr %2, null
  br i1 %8, label %9, label %11

9:                                                ; preds = %3
  br i1 %.not11.i, label %lxb_tag_name_by_id.exit, label %10

10:                                               ; preds = %9
  store i64 0, ptr %2, align 8
  br label %lxb_tag_name_by_id.exit

11:                                               ; preds = %3
  %.phi.trans.insert.i = getelementptr inbounds i8, ptr %.0.i.i, i64 24
  %.pre.i = load i64, ptr %.phi.trans.insert.i, align 8
  br i1 %.not11.i, label %._crit_edge.i, label %12

12:                                               ; preds = %11
  store i64 %.pre.i, ptr %2, align 8
  br label %._crit_edge.i

._crit_edge.i:                                    ; preds = %12, %11
  %13 = icmp ult i64 %.pre.i, 17
  br i1 %13, label %lxb_tag_name_by_id.exit, label %14

14:                                               ; preds = %._crit_edge.i
  %15 = load ptr, ptr %.0.i.i, align 8
  br label %lxb_tag_name_by_id.exit

lxb_tag_name_by_id.exit:                          ; preds = %9, %10, %._crit_edge.i, %14
  %.0.i = phi ptr [ null, %10 ], [ null, %9 ], [ %15, %14 ], [ %.0.i.i, %._crit_edge.i ]
  ret ptr %.0.i
}